target datalayout = "e-m:e-p270:32:32-p271:32:32-p272:64:64-i64:64-i128:128-f80:128-n8:16:32:64-S128"
target triple = "x86_64-pc-linux-gnu"

%struct._object = type { %union.anon, ptr }
%union.anon = type { i64 }
%struct.PyVarObject = type { %struct._object, i64 }
%struct.arrayobject = type { %struct.PyVarObject, ptr, i64, ptr, ptr, i64 }

@.str.35 = private unnamed_addr constant [29 x i8] c"i;array item must be integer\00", align 1

; Function Attrs: nounwind uwtable
define internal i32 @i_setitem(ptr noundef %0, i64 noundef %1, ptr noundef %2) #0 {
  %4 = alloca i32, align 4
  %5 = alloca ptr, align 8
  %6 = alloca i64, align 8
  %7 = alloca ptr, align 8
  %8 = alloca i32, align 4
  %9 = alloca i32, align 4
  store ptr %0, ptr %5, align 8, !tbaa !68
  store i64 %1, ptr %6, align 8, !tbaa !21
  store ptr %2, ptr %7, align 8, !tbaa !3
  call void @llvm.lifetime.start.p0(i64 4, ptr %8) #8
  %10 = load ptr, ptr %7, align 8, !tbaa !3
  %11 = call i32 (ptr, ptr, ...) @PyArg_Parse(ptr noundef %10, ptr noundef @.str.35, ptr noundef %8)
  %12 = icmp ne i32 %11, 0
  br i1 %12, label %14, label %13

13:                                               ; preds = %3
  store i32 -1, ptr %4, align 4
  store i32 1, ptr %9, align 4
  br label %25

14:                                               ; preds = %3
  %15 = load i64, ptr %6, align 8, !tbaa !21
  %16 = icmp sge i64 %15, 0
  br i1 %16, label %17, label %24

17:                                               ; preds = %14
  %18 = load i32, ptr %8, align 4, !tbaa !12
  %19 = load ptr, ptr %5, align 8, !tbaa !68
  %20 = getelementptr inbounds nuw %struct.arrayobject, ptr %19, i32 0, i32 1
  %21 = load ptr, ptr %20, align 8, !tbaa !70
  %22 = load i64, ptr %6, align 8, !tbaa !21
  %23 = getelementptr i32, ptr %21, i64 %22
  store i32 %18, ptr %23, align 4, !tbaa !12
  br label %24

24:                                               ; preds = %17, %14
  store i32 0, ptr %4, align 4
  store i32 1, ptr %9, align 4
  br label %25

25:                                               ; preds = %24, %13
  call void @llvm.lifetime.end.p0(i64 4, ptr %8) #8
  %26 = load i32, ptr %4, align 4
  ret i32 %26
}